; Function Attrs: mustprogress nofree nounwind willreturn memory(read) uwtable
define noundef zeroext i1 @_ZN7testing8internal6String28CaseInsensitiveCStringEqualsEPKcS3_(ptr noundef readonly captures(address_is_null) %0, ptr noundef readonly captures(address_is_null) %1) local_unnamed_addr #21 align 2 {
  %3 = icmp eq ptr %0, null
  %4 = icmp eq ptr %1, null
  %brmerge = or i1 %3, %4
  %.mux = and i1 %3, %4
  br i1 %brmerge, label %8, label %5

5:                                                ; preds = %2
  %6 = tail call noundef i32 @strcasecmp(ptr noundef nonnull %0, ptr noundef nonnull %1) #63
  %7 = icmp eq i32 %6, 0
  br label %8

8:                                                ; preds = %2, %5
  %.0 = phi i1 [ %7, %5 ], [ %.mux, %2 ]
  ret i1 %.0
}